; ModuleID = '27/614.cpp'
source_filename = "27/614.cpp"
target datalayout = "e-m:e-p270:32:32-p271:32:32-p272:64:64-i64:64-f80:128-n8:16:32:64-S128"
target triple = "x86_64-pc-linux-gnu"

%"class.std::ios_base::Init" = type { i8 }
%"class.std::basic_istream" = type { i32 (...)**, i64, %"class.std::basic_ios" }
%"class.std::basic_ios" = type { %"class.std::ios_base", %"class.std::basic_ostream"*, i8, i8, %"class.std::basic_streambuf"*, %"class.std::ctype"*, %"class.std::num_put"*, %"class.std::num_get"* }
%"class.std::ios_base" = type { i32 (...)**, i64, i64, i32, i32, i32, %"struct.std::ios_base::_Callback_list"*, %"struct.std::ios_base::_Words", [8 x %"struct.std::ios_base::_Words"], i32, %"struct.std::ios_base::_Words"*, %"class.std::locale" }
%"struct.std::ios_base::_Callback_list" = type { %"struct.std::ios_base::_Callback_list"*, void (i32, %"class.std::ios_base"*, i32)*, i32, i32 }
%"struct.std::ios_base::_Words" = type { i8*, i64 }
%"class.std::locale" = type { %"class.std::locale::_Impl"* }
%"class.std::locale::_Impl" = type { i32, %"class.std::locale::facet"**, i64, %"class.std::locale::facet"**, i8** }
%"class.std::locale::facet" = type <{ i32 (...)**, i32, [4 x i8] }>
%"class.std::basic_ostream" = type { i32 (...)**, %"class.std::basic_ios" }
%"class.std::basic_streambuf" = type { i32 (...)**, i8*, i8*, i8*, i8*, i8*, i8*, %"class.std::locale" }
%"class.std::ctype" = type <{ %"class.std::locale::facet.base", [4 x i8], %struct.__locale_struct*, i8, [7 x i8], i32*, i32*, i16*, i8, [256 x i8], [256 x i8], i8, [6 x i8] }>
%"class.std::locale::facet.base" = type <{ i32 (...)**, i32 }>
%struct.__locale_struct = type { [13 x %struct.__locale_data*], i16*, i32*, i32*, [13 x i8*] }
%struct.__locale_data = type opaque
%"class.std::num_put" = type { %"class.std::locale::facet.base", [4 x i8] }
%"class.std::num_get" = type { %"class.std::locale::facet.base", [4 x i8] }

@_ZStL8__ioinit = internal global %"class.std::ios_base::Init" zeroinitializer, align 1
@__dso_handle = external hidden global i8
@_ZSt3cin = external dso_local global %"class.std::basic_istream", align 8
@.str = private unnamed_addr constant [19 x i8] c"x1=%.5lf;x2=%.5lf\0A\00", align 1
@.str.1 = private unnamed_addr constant [13 x i8] c"x1=x2=%.5lf\0A\00", align 1
@.str.2 = private unnamed_addr constant [33 x i8] c"x1=%.5lf+%.5lfi;x2=%.5lf-%.5lfi\0A\00", align 1
@llvm.global_ctors = appending global [1 x { i32, void ()*, i8* }] [{ i32, void ()*, i8* } { i32 65535, void ()* @_GLOBAL__sub_I_614.cpp, i8* null }]

; Function Attrs: noinline uwtable
define internal void @__cxx_global_var_init() #0 section ".text.startup" {
  call void @_ZNSt8ios_base4InitC1Ev(%"class.std::ios_base::Init"* @_ZStL8__ioinit)
  %1 = call i32 @__cxa_atexit(void (i8*)* bitcast (void (%"class.std::ios_base::Init"*)* @_ZNSt8ios_base4InitD1Ev to void (i8*)*), i8* getelementptr inbounds (%"class.std::ios_base::Init", %"class.std::ios_base::Init"* @_ZStL8__ioinit, i32 0, i32 0), i8* @__dso_handle) #3
  ret void
}

declare dso_local void @_ZNSt8ios_base4InitC1Ev(%"class.std::ios_base::Init"*) unnamed_addr #1

; Function Attrs: nounwind
declare dso_local void @_ZNSt8ios_base4InitD1Ev(%"class.std::ios_base::Init"*) unnamed_addr #2

; Function Attrs: nounwind
declare dso_local i32 @__cxa_atexit(void (i8*)*, i8*, i8*) #3

; Function Attrs: noinline norecurse uwtable
define dso_local i32 @main() #4 {
  %1 = alloca i32, align 4
  %2 = alloca i32, align 4
  %3 = alloca i32, align 4
  %4 = alloca i32, align 4
  %5 = alloca float, align 4
  %6 = alloca float, align 4
  %7 = alloca float, align 4
  %8 = alloca double, align 8
  %9 = alloca double, align 8
  %10 = alloca double, align 8
  %11 = alloca double, align 8
  %12 = alloca double, align 8
  store i32 0, i32* %1, align 4
  store i32 1, i32* %2, align 4
  %13 = call dereferenceable(280) %"class.std::basic_istream"* @_ZNSirsERi(%"class.std::basic_istream"* @_ZSt3cin, i32* dereferenceable(4) %3)
  br label %14

14:                                               ; preds = %91, %0
  %15 = load i32, i32* %2, align 4
  %16 = load i32, i32* %3, align 4
  %17 = icmp sle i32 %15, %16
  br i1 %17, label %18, label %94

18:                                               ; preds = %14
  %19 = call dereferenceable(280) %"class.std::basic_istream"* @_ZNSirsERf(%"class.std::basic_istream"* @_ZSt3cin, float* dereferenceable(4) %5)
  %20 = call dereferenceable(280) %"class.std::basic_istream"* @_ZNSirsERf(%"class.std::basic_istream"* %19, float* dereferenceable(4) %6)
  %21 = call dereferenceable(280) %"class.std::basic_istream"* @_ZNSirsERf(%"class.std::basic_istream"* %20, float* dereferenceable(4) %7)
  %22 = load float, float* %6, align 4
  %23 = load float, float* %6, align 4
  %24 = fmul float %22, %23
  %25 = load float, float* %5, align 4
  %26 = fmul float 4.000000e+00, %25
  %27 = load float, float* %7, align 4
  %28 = fmul float %26, %27
  %29 = fsub float %24, %28
  %30 = fpext float %29 to double
  store double %30, double* %10, align 8
  %31 = load double, double* %10, align 8
  %32 = fcmp ogt double %31, 0.000000e+00
  br i1 %32, label %33, label %57

33:                                               ; preds = %18
  %34 = load float, float* %6, align 4
  %35 = fsub float 0.000000e+00, %34
  %36 = fpext float %35 to double
  %37 = load double, double* %10, align 8
  %38 = call double @sqrt(double %37) #3
  %39 = fadd double %36, %38
  %40 = load float, float* %5, align 4
  %41 = fmul float 2.000000e+00, %40
  %42 = fpext float %41 to double
  %43 = fdiv double %39, %42
  store double %43, double* %8, align 8
  %44 = load float, float* %6, align 4
  %45 = fsub float 0.000000e+00, %44
  %46 = fpext float %45 to double
  %47 = load double, double* %10, align 8
  %48 = call double @sqrt(double %47) #3
  %49 = fsub double %46, %48
  %50 = load float, float* %5, align 4
  %51 = fmul float 2.000000e+00, %50
  %52 = fpext float %51 to double
  %53 = fdiv double %49, %52
  store double %53, double* %9, align 8
  %54 = load double, double* %8, align 8
  %55 = load double, double* %9, align 8
  %56 = call i32 (i8*, ...) @printf(i8* getelementptr inbounds ([19 x i8], [19 x i8]* @.str, i64 0, i64 0), double %54, double %55)
  br label %57

57:                                               ; preds = %33, %18
  %58 = load double, double* %10, align 8
  %59 = fcmp oeq double %58, 0.000000e+00
  br i1 %59, label %60, label %69

60:                                               ; preds = %57
  %61 = load float, float* %6, align 4
  %62 = fsub float 0.000000e+00, %61
  %63 = load float, float* %5, align 4
  %64 = fmul float 2.000000e+00, %63
  %65 = fdiv float %62, %64
  %66 = fpext float %65 to double
  store double %66, double* %8, align 8
  %67 = load double, double* %8, align 8
  %68 = call i32 (i8*, ...) @printf(i8* getelementptr inbounds ([13 x i8], [13 x i8]* @.str.1, i64 0, i64 0), double %67)
  br label %69

69:                                               ; preds = %60, %57
  %70 = load double, double* %10, align 8
  %71 = fcmp olt double %70, 0.000000e+00
  br i1 %71, label %72, label %91

72:                                               ; preds = %69
  %73 = load float, float* %6, align 4
  %74 = fsub float 0.000000e+00, %73
  %75 = load float, float* %5, align 4
  %76 = fmul float 2.000000e+00, %75
  %77 = fdiv float %74, %76
  %78 = fpext float %77 to double
  store double %78, double* %11, align 8
  %79 = load double, double* %10, align 8
  %80 = fmul double -1.000000e+00, %79
  %81 = call double @sqrt(double %80) #3
  %82 = load float, float* %5, align 4
  %83 = fmul float 2.000000e+00, %82
  %84 = fpext float %83 to double
  %85 = fdiv double %81, %84
  store double %85, double* %12, align 8
  %86 = load double, double* %11, align 8
  %87 = load double, double* %12, align 8
  %88 = load double, double* %11, align 8
  %89 = load double, double* %12, align 8
  %90 = call i32 (i8*, ...) @printf(i8* getelementptr inbounds ([33 x i8], [33 x i8]* @.str.2, i64 0, i64 0), double %86, double %87, double %88, double %89)
  br label %91

91:                                               ; preds = %72, %69
  %92 = load i32, i32* %2, align 4
  %93 = add nsw i32 %92, 1
  store i32 %93, i32* %2, align 4
  br label %14

94:                                               ; preds = %14
  ret i32 0
}

declare dso_local dereferenceable(280) %"class.std::basic_istream"* @_ZNSirsERi(%"class.std::basic_istream"*, i32* dereferenceable(4)) #1

declare dso_local dereferenceable(280) %"class.std::basic_istream"* @_ZNSirsERf(%"class.std::basic_istream"*, float* dereferenceable(4)) #1

; Function Attrs: nounwind
declare dso_local double @sqrt(double) #2

declare dso_local i32 @printf(i8*, ...) #1

; Function Attrs: noinline uwtable
define internal void @_GLOBAL__sub_I_614.cpp() #0 section ".text.startup" {
  call void @__cxx_global_var_init()
  ret void
}


!llvm.module.flags = !{!0}
!llvm.ident = !{!1}

!0 = !{i32 1, !"wchar_size", i32 4}
!1 = !{!"clang version 10.0.0-4ubuntu1 "}
